target datalayout = "e-m:e-p270:32:32-p271:32:32-p272:64:64-i64:64-i128:128-f80:128-n8:16:32:64-S128"
target triple = "x86_64-pc-linux-gnu"

@g_memory_thread_alloc_size = hidden thread_local global i64 0, align 8
@g_memory_thread_alloc_count = hidden thread_local global i64 0, align 8

; Function Attrs: mustprogress uwtable
define hidden noalias noundef ptr @_ZN6memory10reallocateEPvm(ptr noundef %0, i64 noundef %1) #4 align 2 {
  %3 = alloca ptr, align 8
  %4 = alloca ptr, align 8
  %5 = alloca i64, align 8
  %6 = alloca i64, align 8
  %7 = alloca ptr, align 8
  %8 = alloca i32, align 4
  %9 = alloca ptr, align 8
  store ptr %0, ptr %4, align 8, !tbaa !32
  store i64 %1, ptr %5, align 8, !tbaa !18
  call void @llvm.lifetime.start.p0(i64 8, ptr %6) #3
  %10 = load ptr, ptr %4, align 8, !tbaa !32
  %11 = call i64 @malloc_usable_size(ptr noundef %10) #3
  store i64 %11, ptr %6, align 8, !tbaa !18
  call void @llvm.lifetime.start.p0(i64 8, ptr %7) #3
  %12 = load ptr, ptr %4, align 8, !tbaa !32
  store ptr %12, ptr %7, align 8, !tbaa !32
  %13 = load i64, ptr %6, align 8, !tbaa !18
  %14 = load i64, ptr %5, align 8, !tbaa !18
  %15 = icmp uge i64 %13, %14
  br i1 %15, label %16, label %18

16:                                               ; preds = %2
  %17 = load ptr, ptr %4, align 8, !tbaa !32
  store ptr %17, ptr %3, align 8
  store i32 1, ptr %8, align 4
  br label %49

18:                                               ; preds = %2
  %19 = load i64, ptr %5, align 8, !tbaa !18
  %20 = load i64, ptr %6, align 8, !tbaa !18
  %21 = sub i64 %19, %20
  %22 = call align 8 ptr @llvm.threadlocal.address.p0(ptr align 8 @g_memory_thread_alloc_size)
  %23 = load i64, ptr %22, align 8, !tbaa !20
  %24 = add i64 %23, %21
  store i64 %24, ptr %22, align 8, !tbaa !20
  %25 = call align 8 ptr @llvm.threadlocal.address.p0(ptr align 8 @g_memory_thread_alloc_count)
  %26 = load i64, ptr %25, align 8, !tbaa !20
  %27 = add nsw i64 %26, 1
  store i64 %27, ptr %25, align 8, !tbaa !20
  %28 = call align 8 ptr @llvm.threadlocal.address.p0(ptr align 8 @g_memory_thread_alloc_size)
  %29 = load i64, ptr %28, align 8, !tbaa !20
  %30 = icmp sgt i64 %29, 100000
  br i1 %30, label %31, label %32

31:                                               ; preds = %18
  call void @_ZL20synchronize_countersb(i1 noundef zeroext true)
  br label %32

32:                                               ; preds = %31, %18
  call void @llvm.lifetime.start.p0(i64 8, ptr %9) #3
  %33 = load ptr, ptr %7, align 8, !tbaa !32
  %34 = load i64, ptr %5, align 8, !tbaa !18
  %35 = call ptr @realloc(ptr noundef %33, i64 noundef %34) #24
  store ptr %35, ptr %9, align 8, !tbaa !32
  %36 = load ptr, ptr %9, align 8, !tbaa !32
  %37 = icmp eq ptr %36, null
  br i1 %37, label %38, label %39

38:                                               ; preds = %32
  call void @_ZL19throw_out_of_memoryv()
  store ptr null, ptr %3, align 8
  store i32 1, ptr %8, align 4
  br label %48

39:                                               ; preds = %32
  %40 = load ptr, ptr %9, align 8, !tbaa !32
  %41 = call i64 @malloc_usable_size(ptr noundef %40) #3
  %42 = load i64, ptr %5, align 8, !tbaa !18
  %43 = sub i64 %41, %42
  %44 = call align 8 ptr @llvm.threadlocal.address.p0(ptr align 8 @g_memory_thread_alloc_size)
  %45 = load i64, ptr %44, align 8, !tbaa !20
  %46 = add i64 %45, %43
  store i64 %46, ptr %44, align 8, !tbaa !20
  %47 = load ptr, ptr %9, align 8, !tbaa !32
  store ptr %47, ptr %3, align 8
  store i32 1, ptr %8, align 4
  br label %48

48:                                               ; preds = %39, %38
  call void @llvm.lifetime.end.p0(i64 8, ptr %9) #3
  br label %49

49:                                               ; preds = %48, %16
  call void @llvm.lifetime.end.p0(i64 8, ptr %7) #3
  call void @llvm.lifetime.end.p0(i64 8, ptr %6) #3
  %50 = load ptr, ptr %3, align 8
  ret ptr %50
}