; Function Attrs: mustprogress uwtable
define hidden noalias noundef ptr @_ZN6memory10reallocateEPvm(ptr noundef %0, i64 noundef %1) local_unnamed_addr #3 align 2 {
  %3 = tail call i64 @malloc_usable_size(ptr noundef %0) #25
  %.not = icmp ult i64 %3, %1
  br i1 %.not, label %4, label %23

4:                                                ; preds = %2
  %5 = sub nuw i64 %1, %3
  %6 = tail call align 8 ptr @llvm.threadlocal.address.p0(ptr align 8 @g_memory_thread_alloc_size)
  %7 = load i64, ptr %6, align 8, !tbaa !12
  %8 = add i64 %7, %5
  store i64 %8, ptr %6, align 8, !tbaa !12
  %9 = tail call align 8 ptr @llvm.threadlocal.address.p0(ptr align 8 @g_memory_thread_alloc_count)
  %10 = load i64, ptr %9, align 8, !tbaa !12
  %11 = add nsw i64 %10, 1
  store i64 %11, ptr %9, align 8, !tbaa !12
  %12 = icmp sgt i64 %8, 100000
  br i1 %12, label %13, label %14

13:                                               ; preds = %4
  tail call fastcc void @_ZL20synchronize_countersb(i1 noundef zeroext true)
  br label %14

14:                                               ; preds = %13, %4
  %15 = tail call ptr @realloc(ptr noundef %0, i64 noundef %1) #29
  %16 = icmp eq ptr %15, null
  br i1 %16, label %17, label %18

17:                                               ; preds = %14
  tail call fastcc void @_ZL19throw_out_of_memoryv()
  unreachable

18:                                               ; preds = %14
  %19 = tail call i64 @malloc_usable_size(ptr noundef nonnull %15) #25
  %20 = sub i64 %19, %1
  %21 = load i64, ptr %6, align 8, !tbaa !12
  %22 = add i64 %20, %21
  store i64 %22, ptr %6, align 8, !tbaa !12
  br label %23

23:                                               ; preds = %18, %2
  %.0 = phi ptr [ %0, %2 ], [ %15, %18 ]
  ret ptr %.0
}